target datalayout = "e-m:e-p270:32:32-p271:32:32-p272:64:64-i64:64-i128:128-f80:128-n8:16:32:64-S128"
target triple = "x86_64-pc-linux-gnu"

%struct.mbedtls_ssl_session = type { i8, i8, i8, i32, i64, i32, i64, [32 x i8], [48 x i8], ptr, i32, ptr, i64, i32, i64, i32, i8, i8, [48 x i8], ptr, i64, i32, %struct.mbedtls_ssl_tls13_application_secrets }
%struct.mbedtls_ssl_tls13_application_secrets = type { [64 x i8], [64 x i8], [64 x i8], [64 x i8] }

; Function Attrs: nounwind uwtable
define internal void @ssl_clear_peer_cert(ptr noundef %0) #0 {
  %2 = alloca ptr, align 8
  store ptr %0, ptr %2, align 8, !tbaa !50
  %3 = load ptr, ptr %2, align 8, !tbaa !50
  %4 = getelementptr inbounds nuw %struct.mbedtls_ssl_session, ptr %3, i32 0, i32 9
  %5 = load ptr, ptr %4, align 8, !tbaa !55
  %6 = icmp ne ptr %5, null
  br i1 %6, label %7, label %16

7:                                                ; preds = %1
  %8 = load ptr, ptr %2, align 8, !tbaa !50
  %9 = getelementptr inbounds nuw %struct.mbedtls_ssl_session, ptr %8, i32 0, i32 9
  %10 = load ptr, ptr %9, align 8, !tbaa !55
  call void @mbedtls_x509_crt_free(ptr noundef %10)
  %11 = load ptr, ptr %2, align 8, !tbaa !50
  %12 = getelementptr inbounds nuw %struct.mbedtls_ssl_session, ptr %11, i32 0, i32 9
  %13 = load ptr, ptr %12, align 8, !tbaa !55
  call void @free(ptr noundef %13) #11
  %14 = load ptr, ptr %2, align 8, !tbaa !50
  %15 = getelementptr inbounds nuw %struct.mbedtls_ssl_session, ptr %14, i32 0, i32 9
  store ptr null, ptr %15, align 8, !tbaa !55
  br label %16

16:                                               ; preds = %7, %1
  ret void
}