; Function Attrs: nounwind uwtable
define internal fastcc void @ssl_clear_peer_cert(ptr noundef captures(none) %0) unnamed_addr #1 {
  %2 = getelementptr inbounds nuw i8, ptr %0, i64 112
  %3 = load ptr, ptr %2, align 8, !tbaa !44
  %.not = icmp eq ptr %3, null
  br i1 %.not, label %6, label %4

4:                                                ; preds = %1
  tail call void @mbedtls_x509_crt_free(ptr noundef nonnull %3) #26
  %5 = load ptr, ptr %2, align 8, !tbaa !44
  tail call void @free(ptr noundef %5) #26
  store ptr null, ptr %2, align 8, !tbaa !44
  br label %6

6:                                                ; preds = %4, %1
  ret void
}